; Function Attrs: mustprogress uwtable
define ptr @lean_replace_expr(ptr noundef %0, ptr noundef %1) local_unnamed_addr #0 personality ptr @__gxx_personality_v0 {
  %3 = alloca ptr, align 8
  %4 = alloca %"class.lean::expr", align 8
  %5 = alloca %"class.lean::replace_fn", align 8
  store ptr %1, ptr %3, align 8, !tbaa !35
  call void @llvm.lifetime.start.p0(i64 8, ptr nonnull %4) #14
  call void @llvm.lifetime.start.p0(i64 64, ptr nonnull %5) #14
  %6 = getelementptr inbounds nuw i8, ptr %5, i64 48
  store ptr %6, ptr %5, align 8, !tbaa !36
  %7 = getelementptr inbounds nuw i8, ptr %5, i64 8
  store i64 1, ptr %7, align 8, !tbaa !38
  %8 = getelementptr inbounds nuw i8, ptr %5, i64 16
  %9 = getelementptr inbounds nuw i8, ptr %5, i64 32
  call void @llvm.memset.p0.i64(ptr noundef nonnull align 8 dereferenceable(16) %8, i8 0, i64 16, i1 false)
  store float 1.000000e+00, ptr %9, align 8, !tbaa !16
  %10 = getelementptr inbounds nuw i8, ptr %5, i64 40
  call void @llvm.memset.p0.i64(ptr noundef nonnull align 8 dereferenceable(16) %10, i8 0, i64 16, i1 false)
  %11 = getelementptr inbounds nuw i8, ptr %5, i64 56
  store ptr %0, ptr %11, align 8, !tbaa !39
  invoke void @_ZN4lean10replace_fn5applyERKNS_4exprE(ptr dead_on_unwind nonnull writable sret(%"class.lean::expr") align 8 %4, ptr noundef nonnull align 8 dereferenceable(64) %5, ptr noundef nonnull align 8 dereferenceable(8) %3)
          to label %_ZN4lean10replace_fnclERKNS_4exprE.exit unwind label %35

_ZN4lean10replace_fnclERKNS_4exprE.exit:          ; preds = %2
  %12 = load ptr, ptr %8, align 8, !tbaa !42
  %.not5.i.i.i.i.i = icmp eq ptr %12, null
  br i1 %.not5.i.i.i.i.i, label %_ZNSt10_HashtableIP11lean_objectSt4pairIKS1_N4lean4exprEE16mi_stl_allocatorIS6_ENSt8__detail10_Select1stESt8equal_toIS1_ESt4hashIS1_ENS9_18_Mod_range_hashingENS9_20_Default_ranged_hashENS9_20_Prime_rehash_policyENS9_17_Hashtable_traitsILb0ELb0ELb1EEEE5clearEv.exit.i.i.i, label %.lr.ph.i.i.i.i.i

.lr.ph.i.i.i.i.i:                                 ; preds = %_ZN4lean10replace_fnclERKNS_4exprE.exit, %_ZNSt8__detail16_Hashtable_allocI16mi_stl_allocatorINS_10_Hash_nodeISt4pairIKP11lean_objectN4lean4exprEELb0EEEEE18_M_deallocate_nodeEPSA_.exit.i.i.i.i.i
  %.06.i.i.i.i.i = phi ptr [ %13, %_ZNSt8__detail16_Hashtable_allocI16mi_stl_allocatorINS_10_Hash_nodeISt4pairIKP11lean_objectN4lean4exprEELb0EEEEE18_M_deallocate_nodeEPSA_.exit.i.i.i.i.i ], [ %12, %_ZN4lean10replace_fnclERKNS_4exprE.exit ]
  %13 = load ptr, ptr %.06.i.i.i.i.i, align 8, !tbaa !26
  %14 = getelementptr inbounds nuw i8, ptr %.06.i.i.i.i.i, i64 16
  %15 = load ptr, ptr %14, align 8, !tbaa !27
  %16 = ptrtoint ptr %15 to i64
  %17 = and i64 %16, 1
  %.not.i.i.i.i.i.i.i.i.i.i.i.i = icmp eq i64 %17, 0
  br i1 %.not.i.i.i.i.i.i.i.i.i.i.i.i, label %18, label %_ZNSt8__detail16_Hashtable_allocI16mi_stl_allocatorINS_10_Hash_nodeISt4pairIKP11lean_objectN4lean4exprEELb0EEEEE18_M_deallocate_nodeEPSA_.exit.i.i.i.i.i

18:                                               ; preds = %.lr.ph.i.i.i.i.i
  %19 = load i32, ptr %15, align 4, !tbaa !29
  %20 = icmp sgt i32 %19, 1
  br i1 %20, label %21, label %23, !prof !32

21:                                               ; preds = %18
  %22 = add nsw i32 %19, -1
  store i32 %22, ptr %15, align 4, !tbaa !29
  br label %_ZNSt8__detail16_Hashtable_allocI16mi_stl_allocatorINS_10_Hash_nodeISt4pairIKP11lean_objectN4lean4exprEELb0EEEEE18_M_deallocate_nodeEPSA_.exit.i.i.i.i.i

23:                                               ; preds = %18
  %.not.i.i.i.i.i.i.i.i.i.i.i.i.i.i = icmp eq i32 %19, 0
  br i1 %.not.i.i.i.i.i.i.i.i.i.i.i.i.i.i, label %_ZNSt8__detail16_Hashtable_allocI16mi_stl_allocatorINS_10_Hash_nodeISt4pairIKP11lean_objectN4lean4exprEELb0EEEEE18_M_deallocate_nodeEPSA_.exit.i.i.i.i.i, label %24

24:                                               ; preds = %23
  invoke void @lean_dec_ref_cold(ptr noundef nonnull %15)
          to label %_ZNSt8__detail16_Hashtable_allocI16mi_stl_allocatorINS_10_Hash_nodeISt4pairIKP11lean_objectN4lean4exprEELb0EEEEE18_M_deallocate_nodeEPSA_.exit.i.i.i.i.i unwind label %25

25:                                               ; preds = %24
  %26 = landingpad { ptr, i32 }
          catch ptr null
  %27 = extractvalue { ptr, i32 } %26, 0
  call void @__clang_call_terminate(ptr %27) #15
  unreachable

_ZNSt8__detail16_Hashtable_allocI16mi_stl_allocatorINS_10_Hash_nodeISt4pairIKP11lean_objectN4lean4exprEELb0EEEEE18_M_deallocate_nodeEPSA_.exit.i.i.i.i.i: ; preds = %24, %23, %21, %.lr.ph.i.i.i.i.i
  call void @mi_free(ptr noundef nonnull %.06.i.i.i.i.i) #14
  %.not.i.i.i.i.i = icmp eq ptr %13, null
  br i1 %.not.i.i.i.i.i, label %_ZNSt10_HashtableIP11lean_objectSt4pairIKS1_N4lean4exprEE16mi_stl_allocatorIS6_ENSt8__detail10_Select1stESt8equal_toIS1_ESt4hashIS1_ENS9_18_Mod_range_hashingENS9_20_Default_ranged_hashENS9_20_Prime_rehash_policyENS9_17_Hashtable_traitsILb0ELb0ELb1EEEE5clearEv.exit.i.i.i, label %.lr.ph.i.i.i.i.i, !llvm.loop !43

_ZNSt10_HashtableIP11lean_objectSt4pairIKS1_N4lean4exprEE16mi_stl_allocatorIS6_ENSt8__detail10_Select1stESt8equal_toIS1_ESt4hashIS1_ENS9_18_Mod_range_hashingENS9_20_Default_ranged_hashENS9_20_Prime_rehash_policyENS9_17_Hashtable_traitsILb0ELb0ELb1EEEE5clearEv.exit.i.i.i: ; preds = %_ZNSt8__detail16_Hashtable_allocI16mi_stl_allocatorINS_10_Hash_nodeISt4pairIKP11lean_objectN4lean4exprEELb0EEEEE18_M_deallocate_nodeEPSA_.exit.i.i.i.i.i, %_ZN4lean10replace_fnclERKNS_4exprE.exit
  %28 = load ptr, ptr %5, align 8, !tbaa !36
  %29 = load i64, ptr %7, align 8, !tbaa !38
  %30 = shl i64 %29, 3
  call void @llvm.memset.p0.i64(ptr align 8 %28, i8 0, i64 %30, i1 false)
  call void @llvm.memset.p0.i64(ptr noundef nonnull align 8 dereferenceable(16) %8, i8 0, i64 16, i1 false)
  %31 = load ptr, ptr %5, align 8, !tbaa !36
  %32 = icmp eq ptr %31, %6
  br i1 %32, label %_ZN4lean10object_refD2Ev.exit, label %33

33:                                               ; preds = %_ZNSt10_HashtableIP11lean_objectSt4pairIKS1_N4lean4exprEE16mi_stl_allocatorIS6_ENSt8__detail10_Select1stESt8equal_toIS1_ESt4hashIS1_ENS9_18_Mod_range_hashingENS9_20_Default_ranged_hashENS9_20_Prime_rehash_policyENS9_17_Hashtable_traitsILb0ELb0ELb1EEEE5clearEv.exit.i.i.i
  call void @mi_free(ptr noundef %31) #14
  br label %_ZN4lean10object_refD2Ev.exit

_ZN4lean10object_refD2Ev.exit:                    ; preds = %_ZNSt10_HashtableIP11lean_objectSt4pairIKS1_N4lean4exprEE16mi_stl_allocatorIS6_ENSt8__detail10_Select1stESt8equal_toIS1_ESt4hashIS1_ENS9_18_Mod_range_hashingENS9_20_Default_ranged_hashENS9_20_Prime_rehash_policyENS9_17_Hashtable_traitsILb0ELb0ELb1EEEE5clearEv.exit.i.i.i, %33
  call void @llvm.lifetime.end.p0(i64 64, ptr nonnull %5) #14
  %34 = load ptr, ptr %4, align 8, !tbaa !27
  call void @llvm.lifetime.end.p0(i64 8, ptr nonnull %4) #14
  ret ptr %34

35:                                               ; preds = %2
  %36 = landingpad { ptr, i32 }
          cleanup
  call void @_ZN4lean10replace_fnD2Ev(ptr noundef nonnull align 8 dereferenceable(64) %5) #14
  call void @llvm.lifetime.end.p0(i64 64, ptr nonnull %5) #14
  call void @llvm.lifetime.end.p0(i64 8, ptr nonnull %4) #14
  resume { ptr, i32 } %36
}